#include <math.h>
#include <stdio.h>
#include <stdlib.h>
#include <string.h>

void main()
{
	int n,a[300],b[300],i,j,m=1;
	scanf("%d",&n);
	for(i=0;i<=n-1;i++) scanf("%d",&a[i]);
	b[0]=a[0];
	for(i=0;i<=n-1;i++)
	{
		for (j=0;j<=m-1;j++)
		{
			if(a[i]==b[j]) break;
		}
		if (j==m)
		{
			m++;
			b[m-1]=a[i];
		}
		else continue;
	}
	for(i=0;i<=m-1;i++) 
	{
		if (i!=0) printf(",");
		printf("%d",b[i]);
	}
}

