; ModuleID = 'source-C-CXX/52/214.c'
source_filename = "source-C-CXX/52/214.c"
target datalayout = "e-m:e-p270:32:32-p271:32:32-p272:64:64-i64:64-f80:128-n8:16:32:64-S128"
target triple = "x86_64-pc-linux-gnu"

@.str = private unnamed_addr constant [3 x i8] c"%d\00", align 1

; Function Attrs: nofree nounwind sspstrong uwtable
define dso_local void @main() local_unnamed_addr #0 {
  %1 = alloca i32, align 4
  %2 = alloca [300 x i32], align 16
  %3 = alloca [300 x i32], align 16
  %4 = bitcast i32* %1 to i8*
  call void @llvm.lifetime.start.p0i8(i64 4, i8* nonnull %4) #4
  %5 = bitcast [300 x i32]* %2 to i8*
  call void @llvm.lifetime.start.p0i8(i64 1200, i8* nonnull %5) #4
  %6 = bitcast [300 x i32]* %3 to i8*
  call void @llvm.lifetime.start.p0i8(i64 1200, i8* nonnull %6) #4
  %7 = call i32 (i8*, ...) @__isoc99_scanf(i8* getelementptr inbounds ([3 x i8], [3 x i8]* @.str, i64 0, i64 0), i32* nonnull %1)
  %8 = load i32, i32* %1, align 4, !tbaa !5
  %9 = icmp sgt i32 %8, 0
  br i1 %9, label %10, label %35

10:                                               ; preds = %0, %10
  %11 = phi i64 [ %14, %10 ], [ 0, %0 ]
  %12 = getelementptr inbounds [300 x i32], [300 x i32]* %2, i64 0, i64 %11
  %13 = call i32 (i8*, ...) @__isoc99_scanf(i8* getelementptr inbounds ([3 x i8], [3 x i8]* @.str, i64 0, i64 0), i32* nonnull %12)
  %14 = add nuw nsw i64 %11, 1
  %15 = load i32, i32* %1, align 4, !tbaa !5
  %16 = sext i32 %15 to i64
  %17 = icmp slt i64 %14, %16
  br i1 %17, label %10, label %18, !llvm.loop !9

18:                                               ; preds = %10
  %19 = getelementptr inbounds [300 x i32], [300 x i32]* %2, i64 0, i64 0
  %20 = load i32, i32* %19, align 16, !tbaa !5
  %21 = getelementptr inbounds [300 x i32], [300 x i32]* %3, i64 0, i64 0
  store i32 %20, i32* %21, align 16, !tbaa !5
  %22 = icmp sgt i32 %15, 0
  br i1 %22, label %23, label %35

23:                                               ; preds = %18
  %24 = zext i32 %15 to i64
  br label %25

25:                                               ; preds = %23, %61
  %26 = phi i64 [ 0, %23 ], [ %63, %61 ]
  %27 = phi i32 [ 1, %23 ], [ %62, %61 ]
  %28 = icmp sgt i32 %27, 0
  br i1 %28, label %29, label %52

29:                                               ; preds = %25
  %30 = getelementptr inbounds [300 x i32], [300 x i32]* %2, i64 0, i64 %26
  %31 = load i32, i32* %30, align 4, !tbaa !5
  %32 = zext i32 %27 to i64
  br label %42

33:                                               ; preds = %61
  %34 = icmp sgt i32 %62, 0
  br i1 %34, label %35, label %73

35:                                               ; preds = %0, %18, %33
  %36 = phi i32 [ %62, %33 ], [ 1, %18 ], [ 1, %0 ]
  %37 = getelementptr inbounds [300 x i32], [300 x i32]* %3, i64 0, i64 0
  %38 = zext i32 %36 to i64
  %39 = load i32, i32* %37, align 16, !tbaa !5
  %40 = call i32 (i8*, ...) @printf(i8* nonnull dereferenceable(1) getelementptr inbounds ([3 x i8], [3 x i8]* @.str, i64 0, i64 0), i32 %39)
  %41 = icmp eq i32 %36, 1
  br i1 %41, label %73, label %65

42:                                               ; preds = %29, %47
  %43 = phi i64 [ 0, %29 ], [ %48, %47 ]
  %44 = getelementptr inbounds [300 x i32], [300 x i32]* %3, i64 0, i64 %43
  %45 = load i32, i32* %44, align 4, !tbaa !5
  %46 = icmp eq i32 %31, %45
  br i1 %46, label %50, label %47

47:                                               ; preds = %42
  %48 = add nuw nsw i64 %43, 1
  %49 = icmp eq i64 %48, %32
  br i1 %49, label %55, label %42, !llvm.loop !11

50:                                               ; preds = %42
  %51 = trunc i64 %43 to i32
  br label %52

52:                                               ; preds = %50, %25
  %53 = phi i32 [ 0, %25 ], [ %51, %50 ]
  %54 = icmp eq i32 %53, %27
  br i1 %54, label %55, label %61

55:                                               ; preds = %47, %52
  %56 = add nsw i32 %27, 1
  %57 = getelementptr inbounds [300 x i32], [300 x i32]* %2, i64 0, i64 %26
  %58 = load i32, i32* %57, align 4, !tbaa !5
  %59 = sext i32 %27 to i64
  %60 = getelementptr inbounds [300 x i32], [300 x i32]* %3, i64 0, i64 %59
  store i32 %58, i32* %60, align 4, !tbaa !5
  br label %61

61:                                               ; preds = %52, %55
  %62 = phi i32 [ %56, %55 ], [ %27, %52 ]
  %63 = add nuw nsw i64 %26, 1
  %64 = icmp eq i64 %63, %24
  br i1 %64, label %33, label %25, !llvm.loop !12

65:                                               ; preds = %35, %65
  %66 = phi i64 [ %71, %65 ], [ 1, %35 ]
  %67 = call i32 @putchar(i32 44)
  %68 = getelementptr inbounds [300 x i32], [300 x i32]* %3, i64 0, i64 %66
  %69 = load i32, i32* %68, align 4, !tbaa !5
  %70 = call i32 (i8*, ...) @printf(i8* nonnull dereferenceable(1) getelementptr inbounds ([3 x i8], [3 x i8]* @.str, i64 0, i64 0), i32 %69)
  %71 = add nuw nsw i64 %66, 1
  %72 = icmp eq i64 %71, %38
  br i1 %72, label %73, label %65, !llvm.loop !13

73:                                               ; preds = %65, %35, %33
  call void @llvm.lifetime.end.p0i8(i64 1200, i8* nonnull %6) #4
  call void @llvm.lifetime.end.p0i8(i64 1200, i8* nonnull %5) #4
  call void @llvm.lifetime.end.p0i8(i64 4, i8* nonnull %4) #4
  ret void
}

; Function Attrs: argmemonly mustprogress nofree nosync nounwind willreturn
declare void @llvm.lifetime.start.p0i8(i64 immarg, i8* nocapture) #1

; Function Attrs: nofree nounwind
declare noundef i32 @__isoc99_scanf(i8* nocapture noundef readonly, ...) local_unnamed_addr #2

; Function Attrs: nofree nounwind
declare noundef i32 @printf(i8* nocapture noundef readonly, ...) local_unnamed_addr #2

; Function Attrs: argmemonly mustprogress nofree nosync nounwind willreturn
declare void @llvm.lifetime.end.p0i8(i64 immarg, i8* nocapture) #1

; Function Attrs: nofree nounwind
declare noundef i32 @putchar(i32 noundef) local_unnamed_addr #3


!llvm.module.flags = !{!0, !1, !2, !3}
!llvm.ident = !{!4}

!0 = !{i32 1, !"wchar_size", i32 4}
!1 = !{i32 7, !"PIC Level", i32 2}
!2 = !{i32 7, !"PIE Level", i32 2}
!3 = !{i32 7, !"uwtable", i32 1}
!4 = !{!"clang version 13.0.0"}
!5 = !{!6, !6, i64 0}
!6 = !{!"int", !7, i64 0}
!7 = !{!"omnipotent char", !8, i64 0}
!8 = !{!"Simple C/C++ TBAA"}
!9 = distinct !{!9, !10}
!10 = !{!"llvm.loop.mustprogress"}
!11 = distinct !{!11, !10}
!12 = distinct !{!12, !10}
!13 = distinct !{!13, !10, !14}
!14 = !{!"llvm.loop.peeled.count", i32 1}
